target datalayout = "e-m:e-p270:32:32-p271:32:32-p272:64:64-i64:64-i128:128-f80:128-n8:16:32:64-S128"
target triple = "x86_64-unknown-linux-gnu"

@opt_prof = external global i8, align 1

; Function Attrs: nounwind uwtable
define internal i32 @experimental_hooks_prof_dump_ctl(ptr noundef %tsd, ptr noundef %mib, i64 noundef %miblen, ptr noundef %oldp, ptr noundef %oldlenp, ptr noundef %newp, i64 noundef %newlen) #0 {
entry:
  %tsd.addr = alloca ptr, align 8
  %mib.addr = alloca ptr, align 8
  %miblen.addr = alloca i64, align 8
  %oldp.addr = alloca ptr, align 8
  %oldlenp.addr = alloca ptr, align 8
  %newp.addr = alloca ptr, align 8
  %newlen.addr = alloca i64, align 8
  %ret = alloca i32, align 4
  %old_hook = alloca ptr, align 8
  %copylen = alloca i64, align 8
  %new_hook = alloca ptr, align 8
  store ptr %tsd, ptr %tsd.addr, align 8
  store ptr %mib, ptr %mib.addr, align 8
  store i64 %miblen, ptr %miblen.addr, align 8
  store ptr %oldp, ptr %oldp.addr, align 8
  store ptr %oldlenp, ptr %oldlenp.addr, align 8
  store ptr %newp, ptr %newp.addr, align 8
  store i64 %newlen, ptr %newlen.addr, align 8
  %0 = load ptr, ptr %oldp.addr, align 8
  %cmp = icmp eq ptr %0, null
  br i1 %cmp, label %land.lhs.true, label %if.end

land.lhs.true:                                    ; preds = %entry
  %1 = load ptr, ptr %newp.addr, align 8
  %cmp1 = icmp eq ptr %1, null
  br i1 %cmp1, label %if.then, label %if.end

if.then:                                          ; preds = %land.lhs.true
  store i32 22, ptr %ret, align 4
  br label %label_return

if.end:                                           ; preds = %land.lhs.true, %entry
  %2 = load ptr, ptr %oldp.addr, align 8
  %cmp2 = icmp ne ptr %2, null
  br i1 %cmp2, label %if.then3, label %if.end13

if.then3:                                         ; preds = %if.end
  %call = call ptr (...) @prof_dump_hook_get()
  store ptr %call, ptr %old_hook, align 8
  br label %do.body

do.body:                                          ; preds = %if.then3
  %3 = load ptr, ptr %oldp.addr, align 8
  %cmp4 = icmp ne ptr %3, null
  br i1 %cmp4, label %land.lhs.true5, label %if.end12

land.lhs.true5:                                   ; preds = %do.body
  %4 = load ptr, ptr %oldlenp.addr, align 8
  %cmp6 = icmp ne ptr %4, null
  br i1 %cmp6, label %if.then7, label %if.end12

if.then7:                                         ; preds = %land.lhs.true5
  %5 = load ptr, ptr %oldlenp.addr, align 8
  %6 = load i64, ptr %5, align 8
  %cmp8 = icmp ne i64 %6, 8
  br i1 %cmp8, label %if.then9, label %if.end11

if.then9:                                         ; preds = %if.then7
  %7 = load ptr, ptr %oldlenp.addr, align 8
  %8 = load i64, ptr %7, align 8
  %cmp10 = icmp ule i64 8, %8
  br i1 %cmp10, label %cond.true, label %cond.false

cond.true:                                        ; preds = %if.then9
  br label %cond.end

cond.false:                                       ; preds = %if.then9
  %9 = load ptr, ptr %oldlenp.addr, align 8
  %10 = load i64, ptr %9, align 8
  br label %cond.end

cond.end:                                         ; preds = %cond.false, %cond.true
  %cond = phi i64 [ 8, %cond.true ], [ %10, %cond.false ]
  store i64 %cond, ptr %copylen, align 8
  %11 = load ptr, ptr %oldp.addr, align 8
  %12 = load i64, ptr %copylen, align 8
  call void @llvm.memcpy.p0.p0.i64(ptr align 1 %11, ptr align 1 %old_hook, i64 %12, i1 false)
  %13 = load i64, ptr %copylen, align 8
  %14 = load ptr, ptr %oldlenp.addr, align 8
  store i64 %13, ptr %14, align 8
  store i32 22, ptr %ret, align 4
  br label %label_return

if.end11:                                         ; preds = %if.then7
  %15 = load ptr, ptr %old_hook, align 8
  %16 = load ptr, ptr %oldp.addr, align 8
  store ptr %15, ptr %16, align 8
  br label %if.end12

if.end12:                                         ; preds = %if.end11, %land.lhs.true5, %do.body
  br label %do.end

do.end:                                           ; preds = %if.end12
  br label %if.end13

if.end13:                                         ; preds = %do.end, %if.end
  %17 = load ptr, ptr %newp.addr, align 8
  %cmp14 = icmp ne ptr %17, null
  br i1 %cmp14, label %if.then15, label %if.end26

if.then15:                                        ; preds = %if.end13
  %18 = load i8, ptr @opt_prof, align 1
  %tobool = trunc i8 %18 to i1
  br i1 %tobool, label %if.end17, label %if.then16

if.then16:                                        ; preds = %if.then15
  store i32 2, ptr %ret, align 4
  br label %label_return

if.end17:                                         ; preds = %if.then15
  store ptr null, ptr %new_hook, align 8
  br label %do.body18

do.body18:                                        ; preds = %if.end17
  %19 = load ptr, ptr %newp.addr, align 8
  %cmp19 = icmp ne ptr %19, null
  br i1 %cmp19, label %if.then20, label %if.end24

if.then20:                                        ; preds = %do.body18
  %20 = load i64, ptr %newlen.addr, align 8
  %cmp21 = icmp ne i64 %20, 8
  br i1 %cmp21, label %if.then22, label %if.end23

if.then22:                                        ; preds = %if.then20
  store i32 22, ptr %ret, align 4
  br label %label_return

if.end23:                                         ; preds = %if.then20
  %21 = load ptr, ptr %newp.addr, align 8
  %22 = load ptr, ptr %21, align 8
  store ptr %22, ptr %new_hook, align 8
  br label %if.end24

if.end24:                                         ; preds = %if.end23, %do.body18
  br label %do.end25

do.end25:                                         ; preds = %if.end24
  %23 = load ptr, ptr %new_hook, align 8
  call void @prof_dump_hook_set(ptr noundef %23)
  br label %if.end26

if.end26:                                         ; preds = %do.end25, %if.end13
  store i32 0, ptr %ret, align 4
  br label %label_return

label_return:                                     ; preds = %if.end26, %if.then22, %if.then16, %cond.end, %if.then
  %24 = load i32, ptr %ret, align 4
  ret i32 %24
}